Certificate:
    Data:
        Version: 3 (0x2)
        Serial Number:
            d5:47:69:ca:a4:8e:2f:93
    Signature Algorithm: sha1WithRSAEncryption
        Issuer: C=US, ST=CA, O=Nirmata Inc., OU=DevOps, CN=private.nirmata.co/emailAddress=anudeep.nalla@nirmata.com
        Validity
            Not Before: Nov 28 19:26:38 2023 GMT
            Not After : Nov 27 19:26:38 2024 GMT
        Subject: C=US, ST=CA, L=San Jose, O=Nirmata Inc., OU=DevOps, CN=cm.private.nirmata.co/emailAddress=anudeep.nalla@nirmata.com
        Subject Public Key Info:
            Public Key Algorithm: rsaEncryption
                Public-Key: (2048 bit)
                Modulus:
                    00:b5:a4:95:7d:c9:7e:15:5e:ff:cb:1a:79:1b:4d:
                    ae:3d:e6:6f:a5:70:97:eb:7f:f2:d9:5a:f2:23:5c:
                    95:8e:42:44:c2:e6:84:a3:ff:d5:e8:dc:02:69:59:
                    ed:d8:22:07:32:55:1c:d7:14:bd:06:6d:04:da:9d:
                    6d:2b:e4:56:7a:89:63:bd:5e:76:7f:b5:da:15:3d:
                    f8:50:e0:1d:65:af:71:56:38:15:65:6b:b4:b7:12:
                    82:9c:58:32:33:17:00:62:14:8a:46:cb:54:63:fd:
                    ae:1f:b5:d2:38:4d:19:9f:ae:21:54:53:9a:40:a4:
                    4b:5e:aa:8b:b4:a9:aa:72:c2:c2:03:49:76:4a:6a:
                    6e:bb:ab:13:dc:64:fa:8f:93:96:6d:c0:fc:1a:a2:
                    ab:68:88:7e:91:03:24:c4:6c:9f:3e:d8:a4:c6:94:
                    fa:45:57:f2:a2:0a:36:70:57:10:89:f6:3f:85:88:
                    c2:d7:d1:ea:59:28:bd:e4:65:89:72:34:49:d1:b1:
                    ce:41:c1:a9:eb:c2:6b:55:7d:0e:20:22:20:09:e0:
                    9b:dd:a0:d7:fb:67:9f:92:fe:60:c5:f8:a0:b8:45:
                    62:d8:e4:43:97:97:35:ed:83:02:82:8c:27:6d:ae:
                    d1:33:99:3b:ba:c6:d5:c6:f4:ad:a1:43:a5:1f:f1:
                    8c:cf
                Exponent: 65537 (0x10001)
        X509v3 extensions:
            X509v3 Basic Constraints: 
                CA:FALSE
            Netscape Comment: 
                OpenSSL Generated Certificate
            X509v3 Subject Key Identifier: 
                99:4F:01:9F:CE:03:B4:09:9C:4F:3F:C5:9C:E6:BC:F5:C0:13:C1:6F
            X509v3 Authority Key Identifier: 
                keyid:EC:D1:38:C5:C3:0A:0D:73:3C:E6:D4:7B:F6:52:68:99:76:30:3A:AE

    Signature Algorithm: sha1WithRSAEncryption
         18:69:d6:95:f7:e4:16:69:a2:5c:cd:2d:1b:eb:c1:46:d5:a7:
         65:01:02:9f:e8:7d:e4:04:10:af:4f:3b:76:cd:62:ca:8c:69:
         72:4e:d4:8c:9c:43:9b:8b:ba:9d:54:94:52:27:f9:40:24:d6:
         bb:61:30:0f:4c:ac:90:fd:d8:39:dc:6f:90:ef:d2:0a:cd:39:
         9d:bc:1c:73:e0:1b:25:4c:b6:9a:2c:8f:28:90:a4:9c:14:a2:
         4b:22:76:c5:db:c1:f2:bd:b9:46:5e:fa:23:31:97:2a:80:e3:
         53:fe:67:f0:71:ab:6f:37:b8:f2:ae:50:7b:14:7d:c1:2c:97:
         5b:4f:a1:5e:b0:96:97:3a:bf:44:70:18:9c:27:7c:36:5f:b9:
         a1:b3:6d:bf:d6:97:f6:43:33:be:21:7e:09:4c:5f:bd:cb:af:
         fe:83:fa:4d:ab:4d:8e:a4:aa:16:84:c5:f8:39:85:6f:27:a0:
         82:96:b0:26:17:63:69:74:cf:76:70:b4:da:d2:99:1e:3a:59:
         a2:af:73:9d:19:2b:cc:0e:60:4e:69:1f:25:ae:28:58:d6:15:
         1c:33:54:91:9b:b0:90:73:a8:71:df:01:5d:df:41:d2:5f:75:
         18:c5:9d:53:f1:d0:fc:96:f9:c5:22:0b:a3:2e:74:16:18:56:
         27:75:ff:19
-----BEGIN CERTIFICATE-----
MIIEKDCCAxCgAwIBAgIJANVHacqkji+TMA0GCSqGSIb3DQEBBQUAMIGJMQswCQYD
VQQGEwJVUzELMAkGA1UECAwCQ0ExFTATBgNVBAoMDE5pcm1hdGEgSW5jLjEPMA0G
A1UECwwGRGV2T3BzMRswGQYDVQQDDBJwcml2YXRlLm5pcm1hdGEuY28xKDAmBgkq
hkiG9w0BCQEWGWFudWRlZXAubmFsbGFAbmlybWF0YS5jb20wHhcNMjMxMTI4MTky
NjM4WhcNMjQxMTI3MTkyNjM4WjCBnzELMAkGA1UEBhMCVVMxCzAJBgNVBAgMAkNB
MREwDwYDVQQHDAhTYW4gSm9zZTEVMBMGA1UECgwMTmlybWF0YSBJbmMuMQ8wDQYD
VQQLDAZEZXZPcHMxHjAcBgNVBAMMFWNtLnByaXZhdGUubmlybWF0YS5jbzEoMCYG
CSqGSIb3DQEJARYZYW51ZGVlcC5uYWxsYUBuaXJtYXRhLmNvbTCCASIwDQYJKoZI
hvcNAQEBBQADggEPADCCAQoCggEBALWklX3JfhVe/8saeRtNrj3mb6Vwl+t/8tla
8iNclY5CRMLmhKP/1ejcAmlZ7dgiBzJVHNcUvQZtBNqdbSvkVnqJY71edn+12hU9
+FDgHWWvcVY4FWVrtLcSgpxYMjMXAGIUikbLVGP9rh+10jhNGZ+uIVRTmkCkS16q
i7SpqnLCwgNJdkpqbrurE9xk+o+Tlm3A/Bqiq2iIfpEDJMRsnz7YpMaU+kVX8qIK
NnBXEIn2P4WIwtfR6lkoveRliXI0SdGxzkHBqevCa1V9DiAiIAngm92g1/tnn5L+
YMX4oLhFYtjkQ5eXNe2DAoKMJ22u0TOZO7rG1cb0raFDpR/xjM8CAwEAAaN7MHkw
CQYDVR0TBAIwADAsBglghkgBhvhCAQ0EHxYdT3BlblNTTCBHZW5lcmF0ZWQgQ2Vy
dGlmaWNhdGUwHQYDVR0OBBYEFJlPAZ/OA7QJnE8/xZzmvPXAE8FvMB8GA1UdIwQY
MBaAFOzROMXDCg1zPObUe/ZSaJl2MDquMA0GCSqGSIb3DQEBBQUAA4IBAQAYadaV
9+QWaaJczS0b68FG1adlAQKf6H3kBBCvTzt2zWLKjGlyTtSMnEObi7qdVJRSJ/lA
JNa7YTAPTKyQ/dg53G+Q79IKzTmdvBxz4BslTLaaLI8okKScFKJLInbF28HyvblG
XvojMZcqgONT/mfwcatvN7jyrlB7FH3BLJdbT6FesJaXOr9EcBicJ3w2X7mhs22/
1pf2QzO+IX4JTF+9y6/+g/pNq02OpKoWhMX4OYVvJ6CClrAmF2NpdM92cLTa0pke
Olmir3OdGSvMDmBOaR8lrihY1hUcM1SRm7CQc6hx3wFd30HSX3UYxZ1T8dD8lvnF
IgujLnQWGFYndf8Z
-----END CERTIFICATE-----
