Certificate:
    Data:
        Version: 3 (0x2)
        Serial Number:
            d5:47:69:ca:a4:8e:2f:92
    Signature Algorithm: sha1WithRSAEncryption
        Issuer: C=US, ST=CA, O=Nirmata Inc., OU=DevOps, CN=private.nirmata.co/emailAddress=anudeep.nalla@nirmata.com
        Validity
            Not Before: Nov 28 19:22:21 2023 GMT
            Not After : Nov 25 19:22:21 2033 GMT
        Subject: C=US, ST=CA, O=Nirmata Inc., OU=DevOps, CN=private.nirmata.co/emailAddress=anudeep.nalla@nirmata.com
        Subject Public Key Info:
            Public Key Algorithm: rsaEncryption
                Public-Key: (2048 bit)
                Modulus:
                    00:ca:bd:af:a5:82:70:cc:5a:7c:91:4a:07:30:61:
                    72:3c:91:b8:3e:fc:94:41:67:7f:ef:a0:f4:8c:5b:
                    fa:f6:7c:c5:34:30:08:b7:e1:f6:a2:04:21:a4:5d:
                    eb:7b:20:24:74:6c:fd:05:8d:a5:00:68:ee:ae:a4:
                    33:fe:a0:69:f2:69:b9:e2:c2:2c:bb:9c:7c:8a:09:
                    78:b1:1b:d4:f3:05:1d:8f:07:c9:14:3d:60:c9:54:
                    a5:02:cb:ea:e7:4f:4a:b8:ed:9d:61:ba:43:cd:13:
                    d8:00:ba:06:61:bb:97:b4:0d:22:ff:f5:8e:d8:45:
                    a5:9e:86:16:68:a3:36:7b:45:e5:70:f3:f1:3d:46:
                    56:c0:2e:82:33:e9:e7:94:a6:4b:fb:5e:a1:e2:fa:
                    62:69:80:28:cd:07:c7:b0:6f:a9:1a:7c:eb:e3:ea:
                    e3:ef:10:d5:81:fc:e6:19:cb:6a:a9:4b:60:38:fa:
                    25:b7:ac:0f:6f:4d:e0:43:fc:46:60:67:0d:bb:2b:
                    b0:f3:1f:1b:c8:13:24:7f:03:c2:dc:94:a1:10:b4:
                    52:e9:9e:19:b0:1c:f5:50:d3:21:aa:bd:37:aa:a6:
                    7c:17:4e:12:56:66:19:9d:14:16:c9:d1:b9:a8:b8:
                    8b:9a:ac:de:09:2d:97:d2:d8:72:a5:d5:ec:eb:1e:
                    a0:37
                Exponent: 65537 (0x10001)
        X509v3 extensions:
            X509v3 Subject Key Identifier: 
                EC:D1:38:C5:C3:0A:0D:73:3C:E6:D4:7B:F6:52:68:99:76:30:3A:AE
            X509v3 Authority Key Identifier: 
                keyid:EC:D1:38:C5:C3:0A:0D:73:3C:E6:D4:7B:F6:52:68:99:76:30:3A:AE

            X509v3 Basic Constraints: 
                CA:TRUE
    Signature Algorithm: sha1WithRSAEncryption
         1d:0a:a7:09:ee:b0:51:19:77:30:f6:de:f0:c1:ab:bc:1a:e6:
         82:81:3e:89:ec:76:49:44:1c:6d:a8:31:f6:bb:fa:ca:d4:91:
         fd:dc:44:3c:07:9a:19:5a:b7:c1:32:52:1f:c5:ac:bf:ca:73:
         f0:e7:7c:45:da:e2:55:80:f1:9e:93:c7:f3:e1:55:f1:53:57:
         6d:49:5f:ab:a1:5b:ad:4a:08:19:9d:82:85:ac:15:5e:7a:24:
         81:16:a1:24:be:54:20:90:59:c5:76:a9:b7:c5:40:31:c5:8e:
         e0:b4:3b:57:54:17:10:0e:6e:03:1d:2a:33:55:77:8e:ea:b2:
         70:b2:88:39:80:ea:65:01:c4:29:07:29:6d:8f:df:11:4f:26:
         17:8e:38:44:68:47:c9:4e:89:72:de:5b:37:6a:c0:17:9b:18:
         39:70:77:f3:4f:51:4d:b0:ea:3b:f5:6b:69:9a:48:e6:39:4e:
         d4:71:0a:ac:ba:29:94:34:0a:c0:ea:6d:83:21:8b:a9:50:5b:
         c2:80:fd:1d:5b:ab:bc:67:08:7a:88:ea:05:38:a1:54:32:f4:
         d3:ba:c0:3f:1d:84:bf:cb:84:9a:e3:ed:06:5d:5d:62:9a:f7:
         9e:51:e3:18:aa:2d:85:cd:f8:a1:57:68:f7:07:ab:53:c2:a3:
         b5:8f:c2:9c
-----BEGIN CERTIFICATE-----
MIID5zCCAs+gAwIBAgIJANVHacqkji+SMA0GCSqGSIb3DQEBBQUAMIGJMQswCQYD
VQQGEwJVUzELMAkGA1UECAwCQ0ExFTATBgNVBAoMDE5pcm1hdGEgSW5jLjEPMA0G
A1UECwwGRGV2T3BzMRswGQYDVQQDDBJwcml2YXRlLm5pcm1hdGEuY28xKDAmBgkq
hkiG9w0BCQEWGWFudWRlZXAubmFsbGFAbmlybWF0YS5jb20wHhcNMjMxMTI4MTky
MjIxWhcNMzMxMTI1MTkyMjIxWjCBiTELMAkGA1UEBhMCVVMxCzAJBgNVBAgMAkNB
MRUwEwYDVQQKDAxOaXJtYXRhIEluYy4xDzANBgNVBAsMBkRldk9wczEbMBkGA1UE
AwwScHJpdmF0ZS5uaXJtYXRhLmNvMSgwJgYJKoZIhvcNAQkBFhlhbnVkZWVwLm5h
bGxhQG5pcm1hdGEuY29tMIIBIjANBgkqhkiG9w0BAQEFAAOCAQ8AMIIBCgKCAQEA
yr2vpYJwzFp8kUoHMGFyPJG4PvyUQWd/76D0jFv69nzFNDAIt+H2ogQhpF3reyAk
dGz9BY2lAGjurqQz/qBp8mm54sIsu5x8igl4sRvU8wUdjwfJFD1gyVSlAsvq509K
uO2dYbpDzRPYALoGYbuXtA0i//WO2EWlnoYWaKM2e0XlcPPxPUZWwC6CM+nnlKZL
+16h4vpiaYAozQfHsG+pGnzr4+rj7xDVgfzmGctqqUtgOPolt6wPb03gQ/xGYGcN
uyuw8x8byBMkfwPC3JShELRS6Z4ZsBz1UNMhqr03qqZ8F04SVmYZnRQWydG5qLiL
mqzeCS2X0thypdXs6x6gNwIDAQABo1AwTjAdBgNVHQ4EFgQU7NE4xcMKDXM85tR7
9lJomXYwOq4wHwYDVR0jBBgwFoAU7NE4xcMKDXM85tR79lJomXYwOq4wDAYDVR0T
BAUwAwEB/zANBgkqhkiG9w0BAQUFAAOCAQEAHQqnCe6wURl3MPbe8MGrvBrmgoE+
iex2SUQcbagx9rv6ytSR/dxEPAeaGVq3wTJSH8Wsv8pz8Od8RdriVYDxnpPH8+FV
8VNXbUlfq6FbrUoIGZ2ChawVXnokgRahJL5UIJBZxXapt8VAMcWO4LQ7V1QXEA5u
Ax0qM1V3juqycLKIOYDqZQHEKQcpbY/fEU8mF444RGhHyU6Jct5bN2rAF5sYOXB3
809RTbDqO/VraZpI5jlO1HEKrLoplDQKwOptgyGLqVBbwoD9HVurvGcIeojqBTih
VDL007rAPx2Ev8uEmuPtBl1dYpr3nlHjGKothc34oVdo9werU8KjtY/CnA==
-----END CERTIFICATE-----
